target datalayout = "e-m:e-p270:32:32-p271:32:32-p272:64:64-i64:64-i128:128-f80:128-n8:16:32:64-S128"
target triple = "x86_64-pc-linux-gnu"

%"class.std::shared_ptr" = type { %"class.std::__shared_ptr" }
%"class.std::__shared_ptr" = type { ptr, %"class.std::__shared_count" }
%"class.std::__shared_count" = type { ptr }
%"class.open_spiel::phantom_go::PhantomGoState" = type <{ %"class.open_spiel::State.base", [4 x i8], %"class.open_spiel::phantom_go::PhantomGoBoard", %"class.std::unordered_set", float, i32, i32, i8, i8, [2 x i8] }>
%"class.open_spiel::State.base" = type <{ ptr, %"class.std::shared_ptr", i32, i32, %"class.std::vector", i32 }>
%"class.std::vector" = type { %"struct.std::_Vector_base" }
%"struct.std::_Vector_base" = type { %"struct.std::_Vector_base<open_spiel::State::PlayerAction, std::allocator<open_spiel::State::PlayerAction>>::_Vector_impl" }
%"struct.std::_Vector_base<open_spiel::State::PlayerAction, std::allocator<open_spiel::State::PlayerAction>>::_Vector_impl" = type { %"struct.std::_Vector_base<open_spiel::State::PlayerAction, std::allocator<open_spiel::State::PlayerAction>>::_Vector_impl_data" }
%"struct.std::_Vector_base<open_spiel::State::PlayerAction, std::allocator<open_spiel::State::PlayerAction>>::_Vector_impl_data" = type { ptr, ptr, ptr }
%"class.open_spiel::phantom_go::PhantomGoBoard" = type <{ %"struct.std::array", [2 x i8], %"struct.std::array.10", i8, i8, [2 x i8], i32, %"struct.std::array.11", [2 x i8], %"struct.std::array.12", i64, %"struct.std::array.13", i32, i32, i16, [6 x i8] }>
%"struct.std::array" = type { [2 x %"struct.std::array.9"] }
%"struct.std::array.9" = type { [361 x i8] }
%"struct.std::array.10" = type { [2 x i32] }
%"struct.std::array.11" = type { [441 x %"struct.open_spiel::phantom_go::PhantomGoBoard::Vertex"] }
%"struct.open_spiel::phantom_go::PhantomGoBoard::Vertex" = type { i16, i16, i8 }
%"struct.std::array.12" = type { [441 x %"struct.open_spiel::phantom_go::PhantomGoBoard::Chain"] }
%"struct.open_spiel::phantom_go::PhantomGoBoard::Chain" = type { i32, i16, i16, i16 }
%"struct.std::array.13" = type { [4 x i16] }
%"class.std::unordered_set" = type { %"class.std::_Hashtable" }
%"class.std::_Hashtable" = type { ptr, i64, %"struct.std::__detail::_Hash_node_base", i64, %"struct.std::__detail::_Prime_rehash_policy", ptr }
%"struct.std::__detail::_Hash_node_base" = type { ptr }
%"struct.std::__detail::_Prime_rehash_policy" = type { float, i64 }

; Function Attrs: mustprogress nounwind uwtable
define linkonce_odr noundef nonnull align 1 dereferenceable(1) ptr @_ZNSt14__array_traitsIN10open_spiel10phantom_go7GoColorELm361EE6_S_refERA361_KS2_m(ptr noundef nonnull align 1 dereferenceable(361) %0, i64 noundef %1) #5 comdat align 2 {
  %3 = alloca ptr, align 8
  %4 = alloca i64, align 8
  store ptr %0, ptr %3, align 8
  store i64 %1, ptr %4, align 8
  %5 = load ptr, ptr %3, align 8
  %6 = load i64, ptr %4, align 8
  %7 = getelementptr inbounds [361 x i8], ptr %5, i64 0, i64 %6
  ret ptr %7
}

; Function Attrs: mustprogress nounwind uwtable
define linkonce_odr noundef nonnull align 4 dereferenceable(4) ptr @_ZNSt14__array_traitsIiLm2EE6_S_refERA2_Kim(ptr noundef nonnull align 4 dereferenceable(8) %0, i64 noundef %1) #5 comdat align 2 {
  %3 = alloca ptr, align 8
  %4 = alloca i64, align 8
  store ptr %0, ptr %3, align 8
  store i64 %1, ptr %4, align 8
  %5 = load ptr, ptr %3, align 8
  %6 = load i64, ptr %4, align 8
  %7 = getelementptr inbounds [2 x i32], ptr %5, i64 0, i64 %6
  ret ptr %7
}

; Function Attrs: mustprogress nounwind uwtable
define linkonce_odr noundef nonnull align 1 dereferenceable(1) ptr @_ZNSt5arrayIN10open_spiel10phantom_go7GoColorELm361EEixEm(ptr noundef nonnull align 1 dereferenceable(361) %0, i64 noundef %1) #5 comdat align 2 {
  %3 = alloca ptr, align 8
  %4 = alloca i64, align 8
  store ptr %0, ptr %3, align 8
  store i64 %1, ptr %4, align 8
  %5 = load ptr, ptr %3, align 8
  %6 = getelementptr inbounds nuw %"struct.std::array.9", ptr %5, i32 0, i32 0
  %7 = load i64, ptr %4, align 8
  %8 = call noundef nonnull align 1 dereferenceable(1) ptr @_ZNSt14__array_traitsIN10open_spiel10phantom_go7GoColorELm361EE6_S_refERA361_KS2_m(ptr noundef nonnull align 1 dereferenceable(361) %6, i64 noundef %7) #3
  ret ptr %8
}

; Function Attrs: mustprogress nounwind uwtable
define linkonce_odr noundef nonnull align 4 dereferenceable(4) ptr @_ZNSt5arrayIiLm2EEixEm(ptr noundef nonnull align 4 dereferenceable(8) %0, i64 noundef %1) #5 comdat align 2 {
  %3 = alloca ptr, align 8
  %4 = alloca i64, align 8
  store ptr %0, ptr %3, align 8
  store i64 %1, ptr %4, align 8
  %5 = load ptr, ptr %3, align 8
  %6 = getelementptr inbounds nuw %"struct.std::array.10", ptr %5, i32 0, i32 0
  %7 = load i64, ptr %4, align 8
  %8 = call noundef nonnull align 4 dereferenceable(4) ptr @_ZNSt14__array_traitsIiLm2EE6_S_refERA2_Kim(ptr noundef nonnull align 4 dereferenceable(8) %6, i64 noundef %7) #3
  ret ptr %8
}

; Function Attrs: mustprogress nounwind uwtable
define linkonce_odr i64 @_ZNK10open_spiel10phantom_go14PhantomGoBoard13GetStoneCountEv(ptr noundef nonnull align 8 dereferenceable(8706) %0) #5 comdat align 2 {
  %2 = alloca %"struct.std::array.10", align 4
  %3 = alloca ptr, align 8
  store ptr %0, ptr %3, align 8
  %4 = load ptr, ptr %3, align 8
  %5 = getelementptr inbounds nuw %"class.open_spiel::phantom_go::PhantomGoBoard", ptr %4, i32 0, i32 2
  call void @llvm.memcpy.p0.p0.i64(ptr align 4 %2, ptr align 4 %5, i64 8, i1 false)
  %6 = getelementptr inbounds nuw %"struct.std::array.10", ptr %2, i32 0, i32 0
  %7 = load i64, ptr %6, align 4
  ret i64 %7
}

; Function Attrs: mustprogress nounwind uwtable
define linkonce_odr noundef i32 @_ZNK10open_spiel10phantom_go14PhantomGoBoard10board_sizeEv(ptr noundef nonnull align 8 dereferenceable(8706) %0) #5 comdat align 2 {
  %2 = alloca ptr, align 8
  store ptr %0, ptr %2, align 8
  %3 = load ptr, ptr %2, align 8
  %4 = getelementptr inbounds nuw %"class.open_spiel::phantom_go::PhantomGoBoard", ptr %3, i32 0, i32 12
  %5 = load i32, ptr %4, align 8
  ret i32 %5
}

; Function Attrs: mustprogress uwtable
define noundef zeroext i1 @_ZN10open_spiel10phantom_go14PhantomGoState17equalMetapositionERKS1_S3_i(ptr noundef nonnull align 8 dereferenceable(8846) %0, ptr noundef nonnull align 8 dereferenceable(8846) %1, i32 noundef %2) #4 align 2 {
  %4 = alloca i1, align 1
  %5 = alloca ptr, align 8
  %6 = alloca ptr, align 8
  %7 = alloca i32, align 4
  %8 = alloca %"struct.std::array.10", align 4
  %9 = alloca %"struct.std::array.10", align 4
  %10 = alloca i32, align 4
  %11 = alloca %"struct.std::array.9", align 1
  %12 = alloca %"struct.std::array.9", align 1
  %13 = alloca i32, align 4
  store ptr %0, ptr %5, align 8
  store ptr %1, ptr %6, align 8
  store i32 %2, ptr %7, align 4
  %14 = load ptr, ptr %5, align 8
  %15 = getelementptr inbounds nuw %"class.open_spiel::phantom_go::PhantomGoState", ptr %14, i32 0, i32 2
  %16 = call noundef i32 @_ZNK10open_spiel10phantom_go14PhantomGoBoard10board_sizeEv(ptr noundef nonnull align 8 dereferenceable(8706) %15)
  %17 = load ptr, ptr %6, align 8
  %18 = getelementptr inbounds nuw %"class.open_spiel::phantom_go::PhantomGoState", ptr %17, i32 0, i32 2
  %19 = call noundef i32 @_ZNK10open_spiel10phantom_go14PhantomGoBoard10board_sizeEv(ptr noundef nonnull align 8 dereferenceable(8706) %18)
  %20 = icmp ne i32 %16, %19
  br i1 %20, label %21, label %22

21:                                               ; preds = %3
  store i1 false, ptr %4, align 1
  br label %84

22:                                               ; preds = %3
  %23 = load ptr, ptr %5, align 8
  %24 = getelementptr inbounds nuw %"class.open_spiel::phantom_go::PhantomGoState", ptr %23, i32 0, i32 2
  %25 = call i64 @_ZNK10open_spiel10phantom_go14PhantomGoBoard13GetStoneCountEv(ptr noundef nonnull align 8 dereferenceable(8706) %24)
  %26 = getelementptr inbounds nuw %"struct.std::array.10", ptr %8, i32 0, i32 0
  store i64 %25, ptr %26, align 4
  %27 = load ptr, ptr %6, align 8
  %28 = getelementptr inbounds nuw %"class.open_spiel::phantom_go::PhantomGoState", ptr %27, i32 0, i32 2
  %29 = call i64 @_ZNK10open_spiel10phantom_go14PhantomGoBoard13GetStoneCountEv(ptr noundef nonnull align 8 dereferenceable(8706) %28)
  %30 = getelementptr inbounds nuw %"struct.std::array.10", ptr %9, i32 0, i32 0
  store i64 %29, ptr %30, align 4
  %31 = call noundef nonnull align 4 dereferenceable(4) ptr @_ZNSt5arrayIiLm2EEixEm(ptr noundef nonnull align 4 dereferenceable(8) %8, i64 noundef 0) #3
  %32 = load i32, ptr %31, align 4
  %33 = call noundef nonnull align 4 dereferenceable(4) ptr @_ZNSt5arrayIiLm2EEixEm(ptr noundef nonnull align 4 dereferenceable(8) %9, i64 noundef 0) #3
  %34 = load i32, ptr %33, align 4
  %35 = icmp ne i32 %32, %34
  br i1 %35, label %42, label %36

36:                                               ; preds = %22
  %37 = call noundef nonnull align 4 dereferenceable(4) ptr @_ZNSt5arrayIiLm2EEixEm(ptr noundef nonnull align 4 dereferenceable(8) %8, i64 noundef 1) #3
  %38 = load i32, ptr %37, align 4
  %39 = call noundef nonnull align 4 dereferenceable(4) ptr @_ZNSt5arrayIiLm2EEixEm(ptr noundef nonnull align 4 dereferenceable(8) %9, i64 noundef 1) #3
  %40 = load i32, ptr %39, align 4
  %41 = icmp ne i32 %38, %40
  br i1 %41, label %42, label %43

42:                                               ; preds = %36, %22
  store i1 false, ptr %4, align 1
  br label %84

43:                                               ; preds = %36
  %44 = load ptr, ptr %5, align 8
  %45 = getelementptr inbounds nuw %"class.open_spiel::phantom_go::PhantomGoState", ptr %44, i32 0, i32 2
  %46 = call noundef i32 @_ZNK10open_spiel10phantom_go14PhantomGoBoard10board_sizeEv(ptr noundef nonnull align 8 dereferenceable(8706) %45)
  store i32 %46, ptr %10, align 4
  %47 = load ptr, ptr %5, align 8
  %48 = getelementptr inbounds nuw %"class.open_spiel::phantom_go::PhantomGoState", ptr %47, i32 0, i32 2
  %49 = load i32, ptr %7, align 4
  call void @_ZNK10open_spiel10phantom_go14PhantomGoBoard18GetObservationByIDEi(ptr dead_on_unwind writable sret(%"struct.std::array.9") align 1 %11, ptr noundef nonnull align 8 dereferenceable(8706) %48, i32 noundef %49)
  %50 = load ptr, ptr %6, align 8
  %51 = getelementptr inbounds nuw %"class.open_spiel::phantom_go::PhantomGoState", ptr %50, i32 0, i32 2
  %52 = load i32, ptr %7, align 4
  call void @_ZNK10open_spiel10phantom_go14PhantomGoBoard18GetObservationByIDEi(ptr dead_on_unwind writable sret(%"struct.std::array.9") align 1 %12, ptr noundef nonnull align 8 dereferenceable(8706) %51, i32 noundef %52)
  store i32 0, ptr %13, align 4
  br label %53

53:                                               ; preds = %71, %43
  %54 = load i32, ptr %13, align 4
  %55 = load i32, ptr %10, align 4
  %56 = load i32, ptr %10, align 4
  %57 = mul nsw i32 %55, %56
  %58 = icmp slt i32 %54, %57
  br i1 %58, label %59, label %74

59:                                               ; preds = %53
  %60 = load i32, ptr %13, align 4
  %61 = sext i32 %60 to i64
  %62 = call noundef nonnull align 1 dereferenceable(1) ptr @_ZNSt5arrayIN10open_spiel10phantom_go7GoColorELm361EEixEm(ptr noundef nonnull align 1 dereferenceable(361) %11, i64 noundef %61) #3
  %63 = load i8, ptr %62, align 1
  %64 = load i32, ptr %13, align 4
  %65 = sext i32 %64 to i64
  %66 = call noundef nonnull align 1 dereferenceable(1) ptr @_ZNSt5arrayIN10open_spiel10phantom_go7GoColorELm361EEixEm(ptr noundef nonnull align 1 dereferenceable(361) %12, i64 noundef %65) #3
  %67 = load i8, ptr %66, align 1
  %68 = icmp ne i8 %63, %67
  br i1 %68, label %69, label %70

69:                                               ; preds = %59
  store i1 false, ptr %4, align 1
  br label %84

70:                                               ; preds = %59
  br label %71

71:                                               ; preds = %70
  %72 = load i32, ptr %13, align 4
  %73 = add nsw i32 %72, 1
  store i32 %73, ptr %13, align 4
  br label %53, !llvm.loop !5

74:                                               ; preds = %53
  %75 = load ptr, ptr %5, align 8
  %76 = getelementptr inbounds nuw %"class.open_spiel::phantom_go::PhantomGoState", ptr %75, i32 0, i32 7
  %77 = load i8, ptr %76, align 4
  %78 = load ptr, ptr %6, align 8
  %79 = getelementptr inbounds nuw %"class.open_spiel::phantom_go::PhantomGoState", ptr %78, i32 0, i32 7
  %80 = load i8, ptr %79, align 4
  %81 = icmp ne i8 %77, %80
  br i1 %81, label %82, label %83

82:                                               ; preds = %74
  store i1 false, ptr %4, align 1
  br label %84

83:                                               ; preds = %74
  store i1 true, ptr %4, align 1
  br label %84

84:                                               ; preds = %83, %82, %69, %42, %21
  %85 = load i1, ptr %4, align 1
  ret i1 %85
}