; Function Attrs: mustprogress uwtable
define noundef zeroext i1 @_ZN10open_spiel10phantom_go14PhantomGoState17equalMetapositionERKS1_S3_i(ptr noundef nonnull align 8 dereferenceable(8846) %0, ptr noundef nonnull align 8 dereferenceable(8846) %1, i32 noundef %2) local_unnamed_addr #3 align 2 {
  %4 = alloca %"struct.std::array.9", align 1
  %5 = alloca %"struct.std::array.9", align 1
  %6 = getelementptr inbounds nuw i8, ptr %0, i64 64
  %7 = getelementptr inbounds i8, ptr %0, i64 8760
  %8 = load i32, ptr %7, align 8
  %9 = getelementptr inbounds nuw i8, ptr %1, i64 64
  %10 = getelementptr inbounds i8, ptr %1, i64 8760
  %11 = load i32, ptr %10, align 8
  %.not = icmp eq i32 %8, %11
  br i1 %.not, label %12, label %.loopexit

12:                                               ; preds = %3
  %13 = getelementptr inbounds i8, ptr %0, i64 788
  %.sroa.0.0.copyload.i = load i64, ptr %13, align 4
  %14 = getelementptr inbounds i8, ptr %1, i64 788
  %.sroa.0.0.copyload.i22 = load i64, ptr %14, align 4
  %or.cond = icmp eq i64 %.sroa.0.0.copyload.i, %.sroa.0.0.copyload.i22
  br i1 %or.cond, label %15, label %.loopexit

15:                                               ; preds = %12
  call void @_ZNK10open_spiel10phantom_go14PhantomGoBoard18GetObservationByIDEi(ptr dead_on_unwind nonnull writable sret(%"struct.std::array.9") align 1 %4, ptr noundef nonnull align 8 dereferenceable(8706) %6, i32 noundef %2)
  call void @_ZNK10open_spiel10phantom_go14PhantomGoBoard18GetObservationByIDEi(ptr dead_on_unwind nonnull writable sret(%"struct.std::array.9") align 1 %5, ptr noundef nonnull align 8 dereferenceable(8706) %9, i32 noundef %2)
  %.not26 = icmp eq i32 %8, 0
  br i1 %.not26, label %._crit_edge, label %.lr.ph.preheader

.lr.ph.preheader:                                 ; preds = %15
  %16 = mul i32 %8, %8
  %umax = call i32 @llvm.umax.i32(i32 %16, i32 1)
  %wide.trip.count = zext i32 %umax to i64
  br label %.lr.ph

17:                                               ; preds = %.lr.ph
  %indvars.iv.next = add nuw nsw i64 %indvars.iv, 1
  %exitcond.not = icmp eq i64 %indvars.iv.next, %wide.trip.count
  br i1 %exitcond.not, label %._crit_edge, label %.lr.ph, !llvm.loop !10

.lr.ph:                                           ; preds = %.lr.ph.preheader, %17
  %indvars.iv = phi i64 [ 0, %.lr.ph.preheader ], [ %indvars.iv.next, %17 ]
  %18 = getelementptr inbounds [361 x i8], ptr %4, i64 0, i64 %indvars.iv
  %19 = load i8, ptr %18, align 1
  %20 = getelementptr inbounds [361 x i8], ptr %5, i64 0, i64 %indvars.iv
  %21 = load i8, ptr %20, align 1
  %.not21 = icmp eq i8 %19, %21
  br i1 %.not21, label %17, label %.loopexit

._crit_edge:                                      ; preds = %17, %15
  %22 = getelementptr inbounds nuw i8, ptr %0, i64 8844
  %23 = load i8, ptr %22, align 4
  %24 = getelementptr inbounds nuw i8, ptr %1, i64 8844
  %25 = load i8, ptr %24, align 4
  %.not20 = icmp eq i8 %23, %25
  br label %.loopexit

.loopexit:                                        ; preds = %.lr.ph, %._crit_edge, %12, %3
  %.017 = phi i1 [ false, %3 ], [ false, %12 ], [ %.not20, %._crit_edge ], [ false, %.lr.ph ]
  ret i1 %.017
}